; Function Attrs: mustprogress uwtable
define noundef double @_ZNK8QuantLib16HullWhiteProcess11expectationEddd(ptr noundef nonnull align 8 dereferenceable(192) %this, double noundef %t0, double noundef %x0, double noundef %dt) unnamed_addr #6 align 2 {
entry:
  %process_ = getelementptr inbounds nuw i8, ptr %this, i64 144
  %0 = load ptr, ptr %process_, align 8, !tbaa !40
  %cmp.not.i = icmp eq ptr %0, null
  br i1 %cmp.not.i, label %cond.false.i, label %_ZNK5boost10shared_ptrIN8QuantLib24OrnsteinUhlenbeckProcessEEptEv.exit, !prof !33

cond.false.i:                                     ; preds = %entry
  tail call void @_ZN5boost16assertion_failedEPKcS1_S1_l(ptr noundef nonnull @.str.6, ptr noundef nonnull @__PRETTY_FUNCTION__._ZNK5boost10shared_ptrIN8QuantLib24OrnsteinUhlenbeckProcessEEptEv, ptr noundef nonnull @.str.7, i64 noundef 784)
  %.pre.i = load ptr, ptr %process_, align 8, !tbaa !40
  br label %_ZNK5boost10shared_ptrIN8QuantLib24OrnsteinUhlenbeckProcessEEptEv.exit

_ZNK5boost10shared_ptrIN8QuantLib24OrnsteinUhlenbeckProcessEEptEv.exit: ; preds = %entry, %cond.false.i
  %1 = phi ptr [ %0, %entry ], [ %.pre.i, %cond.false.i ]
  %vtable = load ptr, ptr %1, align 8, !tbaa !28
  %vfn = getelementptr inbounds i8, ptr %vtable, i64 144
  %2 = load ptr, ptr %vfn, align 8
  %call2 = tail call noundef double %2(ptr noundef nonnull align 8 dereferenceable(176) %1, double noundef %t0, double noundef %x0, double noundef %dt)
  %add = fadd double %t0, %dt
  %call3 = tail call noundef double @_ZNK8QuantLib16HullWhiteProcess5alphaEd(ptr noundef nonnull align 8 dereferenceable(192) %this, double noundef %add)
  %add4 = fadd double %call2, %call3
  %call5 = tail call noundef double @_ZNK8QuantLib16HullWhiteProcess5alphaEd(ptr noundef nonnull align 8 dereferenceable(192) %this, double noundef %t0)
  %a_ = getelementptr inbounds nuw i8, ptr %this, i64 176
  %3 = load double, ptr %a_, align 8, !tbaa !51
  %fneg = fneg double %3
  %mul = fmul double %dt, %fneg
  %call6 = tail call double @exp(double noundef %mul) #25, !tbaa !73
  %neg = fneg double %call5
  %4 = tail call double @llvm.fmuladd.f64(double %neg, double %call6, double %add4)
  ret double %4
}